; Function Attrs: nounwind uwtable
define hidden i32 @i2d_PUBKEY(ptr noundef %a, ptr noundef %pp) local_unnamed_addr #0 {
entry:
  %xpk = alloca ptr, align 8
  store ptr null, ptr %xpk, align 8
  %tobool.not = icmp eq ptr %a, null
  br i1 %tobool.not, label %return, label %if.end

if.end:                                           ; preds = %entry
  %call = call i32 @X509_PUBKEY_set(ptr noundef nonnull %xpk, ptr noundef nonnull %a)
  %tobool1.not = icmp eq i32 %call, 0
  br i1 %tobool1.not, label %return, label %if.end3

if.end3:                                          ; preds = %if.end
  %0 = load ptr, ptr %xpk, align 8
  %call.i = call i32 @ASN1_item_i2d(ptr noundef %0, ptr noundef %pp, ptr noundef nonnull @X509_PUBKEY_it) #5
  %1 = load ptr, ptr %xpk, align 8
  call void @ASN1_item_free(ptr noundef %1, ptr noundef nonnull @X509_PUBKEY_it) #5
  br label %return

return:                                           ; preds = %if.end, %entry, %if.end3
  %retval.0 = phi i32 [ %call.i, %if.end3 ], [ 0, %entry ], [ 0, %if.end ]
  ret i32 %retval.0
}